; Function Attrs: cold nounwind optsize uwtable
define internal range(i32 -2147483648, 1) i32 @flashsv2_decode_init(ptr noundef %0) #0 {
  %2 = getelementptr inbounds nuw i8, ptr %0, i64 32
  %3 = load ptr, ptr %2, align 8, !tbaa !4
  %4 = tail call i32 @flashsv_decode_init(ptr noundef %0) #8
  %5 = icmp slt i32 %4, 0
  br i1 %5, label %9, label %6

6:                                                ; preds = %1
  %7 = getelementptr inbounds nuw i8, ptr %3, i64 48
  store ptr @ff_flashsv2_default_palette, ptr %7, align 8, !tbaa !73
  %8 = getelementptr inbounds nuw i8, ptr %3, i64 44
  store i32 2, ptr %8, align 4, !tbaa !45
  br label %9

9:                                                ; preds = %1, %6
  %.0 = phi i32 [ 0, %6 ], [ %4, %1 ]
  ret i32 %.0
}